target datalayout = "e-m:e-p270:32:32-p271:32:32-p272:64:64-i64:64-i128:128-f80:128-n8:16:32:64-S128"
target triple = "x86_64-pc-linux-gnu"

%struct._wmem_tree_t = type { ptr, ptr, ptr, i32, i32, ptr }
%struct._wmem_tree_node_t = type { ptr, ptr, ptr, ptr, ptr, i32, i8, i8 }

; Function Attrs: nounwind null_pointer_is_valid sspstrong uwtable
define zeroext i1 @wmem_tree_contains32(ptr noundef %0, i32 noundef %1) #4 {
  %3 = alloca i1, align 1
  %4 = alloca ptr, align 8
  %5 = alloca i32, align 4
  %6 = alloca ptr, align 8
  %7 = alloca i32, align 4
  store ptr %0, ptr %4, align 8
  store i32 %1, ptr %5, align 4
  %8 = load ptr, ptr %4, align 8
  %9 = icmp ne ptr %8, null
  br i1 %9, label %11, label %10

10:                                               ; preds = %2
  store i1 false, ptr %3, align 1
  br label %56

11:                                               ; preds = %2
  call void @llvm.lifetime.start.p0(i64 8, ptr %6) #6
  %12 = load ptr, ptr %4, align 8
  %13 = getelementptr inbounds nuw %struct._wmem_tree_t, ptr %12, i32 0, i32 2
  %14 = load ptr, ptr %13, align 8
  store ptr %14, ptr %6, align 8
  br label %15

15:                                               ; preds = %53, %11
  %16 = load ptr, ptr %6, align 8
  %17 = icmp ne ptr %16, null
  br i1 %17, label %18, label %54

18:                                               ; preds = %15
  %19 = load i32, ptr %5, align 4
  %20 = load ptr, ptr %6, align 8
  %21 = getelementptr inbounds nuw %struct._wmem_tree_node_t, ptr %20, i32 0, i32 3
  %22 = load ptr, ptr %21, align 8
  %23 = ptrtoint ptr %22 to i64
  %24 = trunc i64 %23 to i32
  %25 = icmp eq i32 %19, %24
  br i1 %25, label %26, label %27

26:                                               ; preds = %18
  store i1 true, ptr %3, align 1
  store i32 1, ptr %7, align 4
  br label %55

27:                                               ; preds = %18
  %28 = load i32, ptr %5, align 4
  %29 = load ptr, ptr %6, align 8
  %30 = getelementptr inbounds nuw %struct._wmem_tree_node_t, ptr %29, i32 0, i32 3
  %31 = load ptr, ptr %30, align 8
  %32 = ptrtoint ptr %31 to i64
  %33 = trunc i64 %32 to i32
  %34 = icmp ult i32 %28, %33
  br i1 %34, label %35, label %39

35:                                               ; preds = %27
  %36 = load ptr, ptr %6, align 8
  %37 = getelementptr inbounds nuw %struct._wmem_tree_node_t, ptr %36, i32 0, i32 1
  %38 = load ptr, ptr %37, align 8
  store ptr %38, ptr %6, align 8
  br label %52

39:                                               ; preds = %27
  %40 = load i32, ptr %5, align 4
  %41 = load ptr, ptr %6, align 8
  %42 = getelementptr inbounds nuw %struct._wmem_tree_node_t, ptr %41, i32 0, i32 3
  %43 = load ptr, ptr %42, align 8
  %44 = ptrtoint ptr %43 to i64
  %45 = trunc i64 %44 to i32
  %46 = icmp ugt i32 %40, %45
  br i1 %46, label %47, label %51

47:                                               ; preds = %39
  %48 = load ptr, ptr %6, align 8
  %49 = getelementptr inbounds nuw %struct._wmem_tree_node_t, ptr %48, i32 0, i32 2
  %50 = load ptr, ptr %49, align 8
  store ptr %50, ptr %6, align 8
  br label %51

51:                                               ; preds = %47, %39
  br label %52

52:                                               ; preds = %51, %35
  br label %53

53:                                               ; preds = %52
  br label %15, !llvm.loop !10

54:                                               ; preds = %15
  store i1 false, ptr %3, align 1
  store i32 1, ptr %7, align 4
  br label %55

55:                                               ; preds = %54, %26
  call void @llvm.lifetime.end.p0(i64 8, ptr %6) #6
  br label %56

56:                                               ; preds = %55, %10
  %57 = load i1, ptr %3, align 1
  ret i1 %57
}