; Function Attrs: nofree norecurse nosync nounwind null_pointer_is_valid sspstrong memory(read, inaccessiblemem: none) uwtable
define noundef zeroext i1 @wmem_tree_contains32(ptr noundef readonly captures(address_is_null) %0, i32 noundef %1) local_unnamed_addr #6 {
  %.not = icmp eq ptr %0, null
  br i1 %.not, label %.loopexit, label %3

3:                                                ; preds = %2
  %4 = getelementptr inbounds nuw i8, ptr %0, i64 16
  %5 = load ptr, ptr %4, align 8
  %.not16.not17 = icmp eq ptr %5, null
  br i1 %.not16.not17, label %.loopexit, label %.lr.ph

.lr.ph:                                           ; preds = %3, %17
  %.018 = phi ptr [ %.1, %17 ], [ %5, %3 ]
  %6 = getelementptr inbounds nuw i8, ptr %.018, i64 24
  %7 = load ptr, ptr %6, align 8
  %8 = ptrtoint ptr %7 to i64
  %9 = trunc i64 %8 to i32
  %10 = icmp eq i32 %1, %9
  br i1 %10, label %.loopexit, label %11

11:                                               ; preds = %.lr.ph
  %12 = icmp ult i32 %1, %9
  br i1 %12, label %.sink.split, label %13

13:                                               ; preds = %11
  %14 = icmp ugt i32 %1, %9
  br i1 %14, label %.sink.split, label %17

.sink.split:                                      ; preds = %13, %11
  %.sink21 = phi i64 [ 8, %11 ], [ 16, %13 ]
  %15 = getelementptr inbounds nuw i8, ptr %.018, i64 %.sink21
  %16 = load ptr, ptr %15, align 8
  br label %17

17:                                               ; preds = %.sink.split, %13
  %.1 = phi ptr [ %.018, %13 ], [ %16, %.sink.split ]
  %.not16.not = icmp eq ptr %.1, null
  br i1 %.not16.not, label %.loopexit, label %.lr.ph, !llvm.loop !12

.loopexit:                                        ; preds = %17, %.lr.ph, %3, %2
  %.011 = phi i1 [ false, %2 ], [ false, %3 ], [ %10, %.lr.ph ], [ %10, %17 ]
  ret i1 %.011
}